; Function Attrs: mustprogress uwtable
define void @_ZNK8facebook5velox5cache8SsdCache5statsEv(ptr noalias sret(%"struct.facebook::velox::cache::SsdCacheStats") align 8 %agg.result, ptr nocapture noundef nonnull readonly align 8 dereferenceable(89) %this) local_unnamed_addr #0 align 2 {
entry:
  tail call void @llvm.memset.p0.i64(ptr noundef nonnull align 8 dereferenceable(88) %agg.result, i8 0, i64 88, i1 false)
  %files_ = getelementptr inbounds i8, ptr %this, i64 40
  %0 = load ptr, ptr %files_, align 8
  %_M_finish.i = getelementptr inbounds i8, ptr %this, i64 48
  %1 = load ptr, ptr %_M_finish.i, align 8
  %cmp.i.not4 = icmp eq ptr %0, %1
  br i1 %cmp.i.not4, label %for.end, label %for.body

for.body:                                         ; preds = %entry, %for.body
  %__begin2.sroa.0.05 = phi ptr [ %incdec.ptr.i, %for.body ], [ %0, %entry ]
  %2 = load ptr, ptr %__begin2.sroa.0.05, align 8
  tail call void @_ZNK8facebook5velox5cache7SsdFile11updateStatsERNS1_13SsdCacheStatsE(ptr noundef nonnull align 8 dereferenceable(381) %2, ptr noundef nonnull align 8 dereferenceable(88) %agg.result)
  %incdec.ptr.i = getelementptr inbounds i8, ptr %__begin2.sroa.0.05, i64 8
  %cmp.i.not = icmp eq ptr %incdec.ptr.i, %1
  br i1 %cmp.i.not, label %for.end, label %for.body

for.end:                                          ; preds = %for.body, %entry
  ret void
}